target datalayout = "e-m:e-p270:32:32-p271:32:32-p272:64:64-i64:64-i128:128-f80:128-n8:16:32:64-S128"
target triple = "x86_64-pc-linux-gnu"

%struct.grpc_slice = type { ptr, %"union.grpc_slice::grpc_slice_data" }
%"union.grpc_slice::grpc_slice_data" = type { %"struct.grpc_slice::grpc_slice_data::grpc_slice_refcounted", [8 x i8] }
%"struct.grpc_slice::grpc_slice_data::grpc_slice_refcounted" = type { i64, ptr }
%struct.grpc_slice_buffer = type { ptr, ptr, i64, i64, i64, [6 x %struct.grpc_slice] }
%"struct.grpc_slice::grpc_slice_data::grpc_slice_inlined" = type { i8, [23 x i8] }

; Function Attrs: mustprogress nounwind uwtable
define void @grpc_slice_buffer_undo_take_first(ptr noundef %0, ptr noundef byval(%struct.grpc_slice) align 8 %1) #6 {
  %3 = alloca ptr, align 8
  store ptr %0, ptr %3, align 8, !tbaa !10
  %4 = load ptr, ptr %3, align 8, !tbaa !10
  %5 = getelementptr inbounds nuw %struct.grpc_slice_buffer, ptr %4, i32 0, i32 1
  %6 = load ptr, ptr %5, align 8, !tbaa !18
  %7 = getelementptr inbounds %struct.grpc_slice, ptr %6, i32 -1
  store ptr %7, ptr %5, align 8, !tbaa !18
  %8 = load ptr, ptr %3, align 8, !tbaa !10
  %9 = getelementptr inbounds nuw %struct.grpc_slice_buffer, ptr %8, i32 0, i32 1
  %10 = load ptr, ptr %9, align 8, !tbaa !18
  %11 = getelementptr inbounds %struct.grpc_slice, ptr %10, i64 0
  call void @llvm.memcpy.p0.p0.i64(ptr align 8 %11, ptr align 8 %1, i64 32, i1 false), !tbaa.struct !24
  %12 = load ptr, ptr %3, align 8, !tbaa !10
  %13 = getelementptr inbounds nuw %struct.grpc_slice_buffer, ptr %12, i32 0, i32 2
  %14 = load i64, ptr %13, align 8, !tbaa !12
  %15 = add i64 %14, 1
  store i64 %15, ptr %13, align 8, !tbaa !12
  %16 = getelementptr inbounds nuw %struct.grpc_slice, ptr %1, i32 0, i32 0
  %17 = load ptr, ptr %16, align 8, !tbaa !19
  %18 = icmp ne ptr %17, null
  br i1 %18, label %19, label %23

19:                                               ; preds = %2
  %20 = getelementptr inbounds nuw %struct.grpc_slice, ptr %1, i32 0, i32 1
  %21 = getelementptr inbounds nuw %"struct.grpc_slice::grpc_slice_data::grpc_slice_refcounted", ptr %20, i32 0, i32 0
  %22 = load i64, ptr %21, align 8, !tbaa !22
  br label %28

23:                                               ; preds = %2
  %24 = getelementptr inbounds nuw %struct.grpc_slice, ptr %1, i32 0, i32 1
  %25 = getelementptr inbounds nuw %"struct.grpc_slice::grpc_slice_data::grpc_slice_inlined", ptr %24, i32 0, i32 0
  %26 = load i8, ptr %25, align 8, !tbaa !22
  %27 = zext i8 %26 to i64
  br label %28

28:                                               ; preds = %23, %19
  %29 = phi i64 [ %22, %19 ], [ %27, %23 ]
  %30 = load ptr, ptr %3, align 8, !tbaa !10
  %31 = getelementptr inbounds nuw %struct.grpc_slice_buffer, ptr %30, i32 0, i32 4
  %32 = load i64, ptr %31, align 8, !tbaa !23
  %33 = add i64 %32, %29
  store i64 %33, ptr %31, align 8, !tbaa !23
  ret void
}