; Function Attrs: mustprogress nofree norecurse nosync nounwind willreturn memory(readwrite, inaccessiblemem: none) uwtable
define void @grpc_slice_buffer_undo_take_first(ptr noundef captures(none) %0, ptr noundef readonly byval(%struct.grpc_slice) align 8 captures(none) %1) local_unnamed_addr #7 {
  %3 = getelementptr inbounds nuw i8, ptr %0, i64 8
  %4 = load ptr, ptr %3, align 8, !tbaa !17
  %5 = getelementptr inbounds i8, ptr %4, i64 -32
  store ptr %5, ptr %3, align 8, !tbaa !17
  call void @llvm.memcpy.p0.p0.i64(ptr noundef nonnull align 8 dereferenceable(32) %5, ptr noundef nonnull align 8 dereferenceable(32) %1, i64 32, i1 false), !tbaa.struct !3
  %6 = getelementptr inbounds nuw i8, ptr %0, i64 16
  %7 = load i64, ptr %6, align 8, !tbaa !13
  %8 = add i64 %7, 1
  store i64 %8, ptr %6, align 8, !tbaa !13
  %9 = load ptr, ptr %1, align 8, !tbaa !18
  %.not = icmp eq ptr %9, null
  %10 = getelementptr inbounds nuw i8, ptr %1, i64 8
  %11 = load i64, ptr %10, align 8
  %12 = and i64 %11, 255
  %13 = select i1 %.not, i64 %12, i64 %11
  %14 = getelementptr inbounds nuw i8, ptr %0, i64 32
  %15 = load i64, ptr %14, align 8, !tbaa !20
  %16 = add i64 %13, %15
  store i64 %16, ptr %14, align 8, !tbaa !20
  ret void
}